; Function Attrs: mustprogress uwtable
define hidden void @_ZN2qe16i_solver_context10add_pluginEPNS_16qe_solver_pluginE(ptr noundef nonnull align 8 dereferenceable(48) %this, ptr noundef %p) local_unnamed_addr #3 align 2 {
entry:
  %m_fid.i = getelementptr inbounds i8, ptr %p, i64 16
  %0 = load i32, ptr %m_fid.i, align 8
  %m_plugins = getelementptr inbounds i8, ptr %this, i64 40
  %1 = load ptr, ptr %m_plugins, align 8
  %cmp.i = icmp eq ptr %1, null
  br i1 %cmp.i, label %_ZNK6vectorIPN2qe16qe_solver_pluginELb0EjE4sizeEv.exit, label %_ZNK6vectorIPN2qe16qe_solver_pluginELb0EjE4sizeEv.exit.thread

_ZNK6vectorIPN2qe16qe_solver_pluginELb0EjE4sizeEv.exit: ; preds = %entry
  %cmp.not = icmp slt i32 %0, 0
  br i1 %cmp.not, label %if.end, label %_ZNK6vectorIPN2qe16qe_solver_pluginELb0EjE4sizeEv.exit.i

_ZNK6vectorIPN2qe16qe_solver_pluginELb0EjE4sizeEv.exit.thread: ; preds = %entry
  %arrayidx.i = getelementptr inbounds i8, ptr %1, i64 -4
  %2 = load i32, ptr %arrayidx.i, align 4
  %cmp.not7 = icmp sgt i32 %2, %0
  br i1 %cmp.not7, label %if.end, label %_ZNK6vectorIPN2qe16qe_solver_pluginELb0EjE4sizeEv.exit.thread.i

_ZNK6vectorIPN2qe16qe_solver_pluginELb0EjE4sizeEv.exit.i: ; preds = %_ZNK6vectorIPN2qe16qe_solver_pluginELb0EjE4sizeEv.exit
  %add = add nuw nsw i32 %0, 1
  br label %while.cond.i.preheader

_ZNK6vectorIPN2qe16qe_solver_pluginELb0EjE4sizeEv.exit.thread.i: ; preds = %_ZNK6vectorIPN2qe16qe_solver_pluginELb0EjE4sizeEv.exit.thread
  %add8 = add nsw i32 %0, 1
  %cmp.not15.i = icmp ult i32 %2, %add8
  br i1 %cmp.not15.i, label %while.cond.i.preheader, label %if.then.i.i

while.cond.i.preheader:                           ; preds = %_ZNK6vectorIPN2qe16qe_solver_pluginELb0EjE4sizeEv.exit.i, %_ZNK6vectorIPN2qe16qe_solver_pluginELb0EjE4sizeEv.exit.thread.i
  %add11.ph = phi i32 [ %add8, %_ZNK6vectorIPN2qe16qe_solver_pluginELb0EjE4sizeEv.exit.thread.i ], [ %add, %_ZNK6vectorIPN2qe16qe_solver_pluginELb0EjE4sizeEv.exit.i ]
  %.ph = phi ptr [ %1, %_ZNK6vectorIPN2qe16qe_solver_pluginELb0EjE4sizeEv.exit.thread.i ], [ null, %_ZNK6vectorIPN2qe16qe_solver_pluginELb0EjE4sizeEv.exit.i ]
  %retval.0.i16.i.ph = phi i32 [ %2, %_ZNK6vectorIPN2qe16qe_solver_pluginELb0EjE4sizeEv.exit.thread.i ], [ 0, %_ZNK6vectorIPN2qe16qe_solver_pluginELb0EjE4sizeEv.exit.i ]
  br label %while.cond.i

if.then.i.i:                                      ; preds = %_ZNK6vectorIPN2qe16qe_solver_pluginELb0EjE4sizeEv.exit.thread.i
  store i32 %add8, ptr %arrayidx.i, align 4
  br label %if.end

while.cond.i:                                     ; preds = %while.cond.i.preheader, %while.body.i
  %3 = phi ptr [ %.pr.pre.i, %while.body.i ], [ %.ph, %while.cond.i.preheader ]
  %cmp.i10.i = icmp eq ptr %3, null
  br i1 %cmp.i10.i, label %_ZNK6vectorIPN2qe16qe_solver_pluginELb0EjE8capacityEv.exit.i, label %if.end.i11.i

if.end.i11.i:                                     ; preds = %while.cond.i
  %arrayidx.i12.i = getelementptr inbounds i8, ptr %3, i64 -8
  %4 = load i32, ptr %arrayidx.i12.i, align 4
  br label %_ZNK6vectorIPN2qe16qe_solver_pluginELb0EjE8capacityEv.exit.i

_ZNK6vectorIPN2qe16qe_solver_pluginELb0EjE8capacityEv.exit.i: ; preds = %if.end.i11.i, %while.cond.i
  %retval.0.i13.i = phi i32 [ %4, %if.end.i11.i ], [ 0, %while.cond.i ]
  %cmp3.i = icmp ult i32 %retval.0.i13.i, %add11.ph
  br i1 %cmp3.i, label %while.body.i, label %while.end.i

while.body.i:                                     ; preds = %_ZNK6vectorIPN2qe16qe_solver_pluginELb0EjE8capacityEv.exit.i
  tail call void @_ZN6vectorIPN2qe16qe_solver_pluginELb0EjE13expand_vectorEv(ptr noundef nonnull align 8 dereferenceable(8) %m_plugins)
  %.pr.pre.i = load ptr, ptr %m_plugins, align 8
  br label %while.cond.i, !llvm.loop !26

while.end.i:                                      ; preds = %_ZNK6vectorIPN2qe16qe_solver_pluginELb0EjE8capacityEv.exit.i
  %arrayidx.i4 = getelementptr inbounds i8, ptr %3, i64 -4
  store i32 %add11.ph, ptr %arrayidx.i4, align 4
  %cmp8.not17.i = icmp eq i32 %retval.0.i16.i.ph, %add11.ph
  br i1 %cmp8.not17.i, label %if.end, label %for.body.preheader.i

for.body.preheader.i:                             ; preds = %while.end.i
  %idx.ext6.i = zext i32 %add11.ph to i64
  %5 = load ptr, ptr %m_plugins, align 8
  %idx.ext.i = zext i32 %retval.0.i16.i.ph to i64
  %add.ptr.i = getelementptr ptr, ptr %5, i64 %idx.ext.i
  %6 = sub nsw i64 %idx.ext6.i, %idx.ext.i
  %7 = shl nsw i64 %6, 3
  tail call void @llvm.memset.p0.i64(ptr align 8 %add.ptr.i, i8 0, i64 %7, i1 false)
  br label %if.end

if.end:                                           ; preds = %for.body.preheader.i, %while.end.i, %if.then.i.i, %_ZNK6vectorIPN2qe16qe_solver_pluginELb0EjE4sizeEv.exit.thread, %_ZNK6vectorIPN2qe16qe_solver_pluginELb0EjE4sizeEv.exit
  %8 = load ptr, ptr %m_plugins, align 8
  %idxprom.i = zext i32 %0 to i64
  %arrayidx.i5 = getelementptr inbounds ptr, ptr %8, i64 %idxprom.i
  store ptr %p, ptr %arrayidx.i5, align 8
  ret void
}